; Function Attrs: mustprogress uwtable
define noundef ptr @_ZNK27NumericValueChooserDelegate12createEditorEP7QWidgetRK20QStyleOptionViewItemRK11QModelIndex(ptr noundef nonnull align 8 dereferenceable(64) %0, ptr noundef %1, ptr noundef nonnull align 8 dereferenceable(208) %2, ptr noundef nonnull align 8 dereferenceable(24) %3) unnamed_addr #0 align 2 personality ptr @__gxx_personality_v0 {
  %5 = alloca { i64, i64 }, align 8
  %6 = alloca { i64, i64 }, align 8
  %7 = alloca %"class.QMetaObject::Connection", align 8
  %8 = load i32, ptr %3, align 8
  %9 = icmp sgt i32 %8, -1
  %10 = getelementptr inbounds i8, ptr %3, i64 4
  %11 = load i32, ptr %10, align 4
  %12 = icmp sgt i32 %11, -1
  %or.cond.i = select i1 %9, i1 %12, i1 false
  %13 = getelementptr inbounds i8, ptr %3, i64 16
  %14 = load ptr, ptr %13, align 8
  %15 = icmp ne ptr %14, null
  %or.cond = select i1 %or.cond.i, i1 %15, i1 false
  br i1 %or.cond, label %17, label %_ZNK11QModelIndex7isValidEv.exit.thread

_ZNK11QModelIndex7isValidEv.exit.thread:          ; preds = %4
  %16 = tail call noundef ptr @_ZNK19QStyledItemDelegate12createEditorEP7QWidgetRK20QStyleOptionViewItemRK11QModelIndex(ptr noundef nonnull align 8 dereferenceable(16) %0, ptr noundef %1, ptr noundef nonnull align 8 dereferenceable(208) %2, ptr noundef nonnull align 8 dereferenceable(24) %3)
  br label %29

17:                                               ; preds = %4
  %18 = tail call noalias noundef nonnull dereferenceable(40) ptr @_Znwm(i64 noundef 40) #12
  invoke void @_ZN8QSpinBoxC1EP7QWidget(ptr noundef nonnull align 8 dereferenceable(40) %18, ptr noundef %1)
          to label %19 unwind label %27

19:                                               ; preds = %17
  %20 = getelementptr inbounds i8, ptr %0, i64 16
  %21 = load i32, ptr %20, align 8
  tail call void @_ZN8QSpinBox10setMinimumEi(ptr noundef nonnull align 8 dereferenceable(40) %18, i32 noundef %21)
  %22 = getelementptr inbounds i8, ptr %0, i64 20
  %23 = load i32, ptr %22, align 4
  tail call void @_ZN8QSpinBox10setMaximumEi(ptr noundef nonnull align 8 dereferenceable(40) %18, i32 noundef %23)
  tail call void @_ZN16QAbstractSpinBox11setWrappingEb(ptr noundef nonnull align 8 dereferenceable(40) %18, i1 noundef zeroext true)
  call void @llvm.lifetime.start.p0(i64 16, ptr nonnull %5)
  call void @llvm.lifetime.start.p0(i64 16, ptr nonnull %6)
  store i64 ptrtoint (ptr @_ZN8QSpinBox12valueChangedEi to i64), ptr %5, align 8, !noalias !4
  %.fca.1.gep14.i = getelementptr inbounds i8, ptr %5, i64 8
  store i64 0, ptr %.fca.1.gep14.i, align 8, !noalias !4
  store i64 ptrtoint (ptr @_ZN27NumericValueChooserDelegate14onValueChangedEi to i64), ptr %6, align 8, !noalias !4
  %.fca.1.gep.i = getelementptr inbounds i8, ptr %6, i64 8
  store i64 0, ptr %.fca.1.gep.i, align 8, !noalias !4
  %24 = tail call noalias noundef nonnull dereferenceable(32) ptr @_Znwm(i64 noundef 32) #12, !noalias !4
  store i32 1, ptr %24, align 4, !noalias !4
  %25 = getelementptr inbounds i8, ptr %24, i64 8
  store ptr @_ZN9QtPrivate11QSlotObjectIM27NumericValueChooserDelegateFviENS_4ListIJiEEEvE4implEiPNS_15QSlotObjectBaseEP7QObjectPPvPb, ptr %25, align 8, !noalias !4
  %26 = getelementptr inbounds i8, ptr %24, i64 16
  store i64 ptrtoint (ptr @_ZN27NumericValueChooserDelegate14onValueChangedEi to i64), ptr %26, align 8, !noalias !4
  %.repack7.i.i = getelementptr inbounds i8, ptr %24, i64 24
  store i64 0, ptr %.repack7.i.i, align 8, !noalias !4
  call void @_ZN7QObject11connectImplEPKS_PPvS1_S3_PN9QtPrivate15QSlotObjectBaseEN2Qt14ConnectionTypeEPKiPK11QMetaObject(ptr dead_on_unwind nonnull writable sret(%"class.QMetaObject::Connection") align 8 %7, ptr noundef nonnull %18, ptr noundef nonnull %5, ptr noundef nonnull %0, ptr noundef nonnull %6, ptr noundef nonnull %24, i32 noundef 0, ptr noundef null, ptr noundef nonnull @_ZN8QSpinBox16staticMetaObjectE)
  call void @llvm.lifetime.end.p0(i64 16, ptr nonnull %5)
  call void @llvm.lifetime.end.p0(i64 16, ptr nonnull %6)
  call void @_ZN11QMetaObject10ConnectionD1Ev(ptr noundef nonnull align 8 dereferenceable(8) %7) #10
  br label %29

27:                                               ; preds = %17
  %28 = landingpad { ptr, i32 }
          cleanup
  tail call void @_ZdlPv(ptr noundef nonnull %18) #11
  resume { ptr, i32 } %28

29:                                               ; preds = %19, %_ZNK11QModelIndex7isValidEv.exit.thread
  %.0 = phi ptr [ %18, %19 ], [ %16, %_ZNK11QModelIndex7isValidEv.exit.thread ]
  ret ptr %.0
}